; Function Attrs: nounwind uwtable
define void @Ssw_ReportOneOutput(ptr noundef readonly captures(none) %0, ptr noundef readnone %1) local_unnamed_addr #2 {
  %3 = getelementptr i8, ptr %0, i64 48
  %.val = load ptr, ptr %3, align 8
  %4 = icmp eq ptr %1, %.val
  %5 = ptrtoint ptr %.val to i64
  %6 = xor i64 %5, 1
  %7 = inttoptr i64 %6 to ptr
  %8 = icmp eq ptr %1, %7
  %.str.1..str.2 = select i1 %8, ptr @.str.1, ptr @.str.2
  %.str.1.sink = select i1 %4, ptr @.str, ptr %.str.1..str.2
  tail call void (i32, ptr, ...) @Abc_Print(i32 poison, ptr noundef nonnull %.str.1.sink)
  ret void
}